target datalayout = "e-m:e-p270:32:32-p271:32:32-p272:64:64-i64:64-i128:128-f80:128-n8:16:32:64-S128"
target triple = "x86_64-pc-linux-gnu"

%"class.cvc5::internal::TypeNode" = type { ptr }
%"class.cvc5::internal::options::ioutils::Scope" = type <{ ptr, i8, [7 x i8], i64, i64, i8, [3 x i8], i32, i32, i8, i8, [2 x i8] }>

; Function Attrs: inlinehint mustprogress uwtable
define linkonce_odr hidden void @_ZNK4cvc58internal8TypeNode8toStreamERSo(ptr noundef nonnull align 8 dereferenceable(8) %0, ptr noundef nonnull align 8 dereferenceable(8) %1) #7 comdat align 2 personality ptr @__gxx_personality_v0 {
  %3 = alloca ptr, align 8
  %4 = alloca ptr, align 8
  %5 = alloca %"class.cvc5::internal::options::ioutils::Scope", align 8
  %6 = alloca ptr, align 8
  %7 = alloca i32, align 4
  store ptr %0, ptr %3, align 8, !tbaa !142
  store ptr %1, ptr %4, align 8, !tbaa !8
  %8 = load ptr, ptr %3, align 8
  call void @llvm.lifetime.start.p0(i64 48, ptr %5) #3
  %9 = load ptr, ptr %4, align 8, !tbaa !8
  %10 = load ptr, ptr %9, align 8, !tbaa !42
  %11 = getelementptr i8, ptr %10, i64 -24
  %12 = load i64, ptr %11, align 8
  %13 = getelementptr inbounds i8, ptr %9, i64 %12
  call void @_ZN4cvc58internal7options7ioutils5ScopeC1ERSt8ios_base(ptr noundef nonnull align 8 dereferenceable(46) %5, ptr noundef nonnull align 8 dereferenceable(216) %13)
  %14 = load ptr, ptr %4, align 8, !tbaa !8
  %15 = load ptr, ptr %14, align 8, !tbaa !42
  %16 = getelementptr i8, ptr %15, i64 -24
  %17 = load i64, ptr %16, align 8
  %18 = getelementptr inbounds i8, ptr %14, i64 %17
  invoke void @_ZN4cvc58internal7options7ioutils14applyDagThreshERSt8ios_basel(ptr noundef nonnull align 8 dereferenceable(216) %18, i64 noundef 0)
          to label %19 unwind label %24

19:                                               ; preds = %2
  %20 = getelementptr inbounds nuw %"class.cvc5::internal::TypeNode", ptr %8, i32 0, i32 0
  %21 = load ptr, ptr %20, align 8, !tbaa !144
  %22 = load ptr, ptr %4, align 8, !tbaa !8
  invoke void @_ZNK4cvc58internal4expr9NodeValue8toStreamERSo(ptr noundef nonnull align 8 dereferenceable(24) %21, ptr noundef nonnull align 8 dereferenceable(8) %22)
          to label %23 unwind label %24

23:                                               ; preds = %19
  call void @_ZN4cvc58internal7options7ioutils5ScopeD1Ev(ptr noundef nonnull align 8 dereferenceable(46) %5) #3
  call void @llvm.lifetime.end.p0(i64 48, ptr %5) #3
  ret void

24:                                               ; preds = %19, %2
  %25 = landingpad { ptr, i32 }
          cleanup
  %26 = extractvalue { ptr, i32 } %25, 0
  store ptr %26, ptr %6, align 8
  %27 = extractvalue { ptr, i32 } %25, 1
  store i32 %27, ptr %7, align 4
  call void @_ZN4cvc58internal7options7ioutils5ScopeD1Ev(ptr noundef nonnull align 8 dereferenceable(46) %5) #3
  call void @llvm.lifetime.end.p0(i64 48, ptr %5) #3
  br label %28

28:                                               ; preds = %24
  %29 = load ptr, ptr %6, align 8
  %30 = load i32, ptr %7, align 4
  %31 = insertvalue { ptr, i32 } poison, ptr %29, 0
  %32 = insertvalue { ptr, i32 } %31, i32 %30, 1
  resume { ptr, i32 } %32
}

; Function Attrs: mustprogress uwtable
define hidden void @_ZNK4cvc58internal7printer4smt211Smt2Printer12toStreamTypeERSoNS0_8TypeNodeE(ptr noundef nonnull align 8 dereferenceable(12) %0, ptr noundef nonnull align 8 dereferenceable(8) %1, ptr noundef %2) #4 align 2 {
  %4 = alloca ptr, align 8
  %5 = alloca ptr, align 8
  %6 = alloca ptr, align 8
  store ptr %0, ptr %4, align 8, !tbaa !3
  store ptr %1, ptr %5, align 8, !tbaa !8
  store ptr %2, ptr %6, align 8, !tbaa !142
  %7 = load ptr, ptr %5, align 8, !tbaa !8
  call void @_ZNK4cvc58internal8TypeNode8toStreamERSo(ptr noundef nonnull align 8 dereferenceable(8) %2, ptr noundef nonnull align 8 dereferenceable(8) %7)
  ret void
}