; Function Attrs: mustprogress uwtable
define hidden void @_ZNK4cvc58internal7printer4smt211Smt2Printer12toStreamTypeERSoNS0_8TypeNodeE(ptr nonnull readnone align 8 captures(none) %0, ptr noundef nonnull align 8 dereferenceable(8) %1, ptr noundef readonly captures(none) %2) local_unnamed_addr #3 align 2 personality ptr @__gxx_personality_v0 {
  %4 = alloca %"class.cvc5::internal::options::ioutils::Scope", align 8
  call void @llvm.lifetime.start.p0(i64 48, ptr nonnull %4) #25
  %5 = load ptr, ptr %1, align 8, !tbaa !40
  %6 = getelementptr i8, ptr %5, i64 -24
  %7 = load i64, ptr %6, align 8
  %8 = getelementptr inbounds i8, ptr %1, i64 %7
  call void @_ZN4cvc58internal7options7ioutils5ScopeC1ERSt8ios_base(ptr noundef nonnull align 8 dereferenceable(46) %4, ptr noundef nonnull align 8 dereferenceable(216) %8)
  %9 = load ptr, ptr %1, align 8, !tbaa !40
  %10 = getelementptr i8, ptr %9, i64 -24
  %11 = load i64, ptr %10, align 8
  %12 = getelementptr inbounds i8, ptr %1, i64 %11
  invoke void @_ZN4cvc58internal7options7ioutils14applyDagThreshERSt8ios_basel(ptr noundef nonnull align 8 dereferenceable(216) %12, i64 noundef 0)
          to label %13 unwind label %15

13:                                               ; preds = %3
  %14 = load ptr, ptr %2, align 8, !tbaa !108
  invoke void @_ZNK4cvc58internal4expr9NodeValue8toStreamERSo(ptr noundef nonnull align 8 dereferenceable(24) %14, ptr noundef nonnull align 8 dereferenceable(8) %1)
          to label %_ZNK4cvc58internal8TypeNode8toStreamERSo.exit unwind label %15

15:                                               ; preds = %13, %3
  %16 = landingpad { ptr, i32 }
          cleanup
  call void @_ZN4cvc58internal7options7ioutils5ScopeD1Ev(ptr noundef nonnull align 8 dereferenceable(46) %4) #25
  call void @llvm.lifetime.end.p0(i64 48, ptr nonnull %4) #25
  resume { ptr, i32 } %16

_ZNK4cvc58internal8TypeNode8toStreamERSo.exit:    ; preds = %13
  call void @_ZN4cvc58internal7options7ioutils5ScopeD1Ev(ptr noundef nonnull align 8 dereferenceable(46) %4) #25
  call void @llvm.lifetime.end.p0(i64 48, ptr nonnull %4) #25
  ret void
}